target datalayout = "e-m:e-p270:32:32-p271:32:32-p272:64:64-i64:64-i128:128-f80:128-n8:16:32:64-S128"
target triple = "x86_64-pc-linux-gnu"

%struct._Node = type { %union.anon.35 }
%union.anon.35 = type { %struct.BagNode }
%struct.BagNode = type { i32, i32, ptr, ptr, i32, %union.anon.37, i32, i32, i32, i32, i32 }
%union.anon.37 = type { %struct.anon.40 }
%struct.anon.40 = type { ptr, ptr }
%struct.anon.36 = type { i32, i32, ptr, ptr }
%struct.ConsAltNode = type { i32, i32, ptr, ptr, ptr }
%struct.AnchorNode = type { i32, i32, ptr, ptr, i32, i32, i32, i32, ptr }
%struct.GimmickNode = type { i32, i32, ptr, i32, i32, i32, i32 }

@check_node_in_look_behind.bag_mask = internal global [2 x i32] [i32 15, i32 14], align 4
@check_node_in_look_behind.anchor_mask = internal global [2 x i32] [i32 212596, i32 212604], align 4

; Function Attrs: nounwind uwtable
define internal i32 @check_node_in_look_behind(ptr noundef %0, i32 noundef %1, ptr noundef %2) #0 {
  %4 = alloca i32, align 4
  %5 = alloca ptr, align 8
  %6 = alloca i32, align 4
  %7 = alloca ptr, align 8
  %8 = alloca i32, align 4
  %9 = alloca i32, align 4
  %10 = alloca i32, align 4
  %11 = alloca ptr, align 8
  %12 = alloca ptr, align 8
  store ptr %0, ptr %5, align 8, !tbaa !47
  store i32 %1, ptr %6, align 4, !tbaa !4
  store ptr %2, ptr %7, align 8, !tbaa !104
  call void @llvm.lifetime.start.p0(i64 4, ptr %8) #9
  call void @llvm.lifetime.start.p0(i64 4, ptr %9) #9
  store i32 0, ptr %9, align 4, !tbaa !4
  %13 = load ptr, ptr %5, align 8, !tbaa !47
  %14 = getelementptr inbounds nuw %struct._Node, ptr %13, i32 0, i32 0
  %15 = getelementptr inbounds nuw %struct.anon.36, ptr %14, i32 0, i32 0
  %16 = load i32, ptr %15, align 8, !tbaa !32
  store i32 %16, ptr %8, align 4, !tbaa !4
  %17 = load i32, ptr %8, align 4, !tbaa !4
  %18 = shl i32 1, %17
  %19 = and i32 %18, 2047
  %20 = icmp eq i32 %19, 0
  br i1 %20, label %21, label %22

21:                                               ; preds = %3
  store i32 1, ptr %4, align 4
  store i32 1, ptr %10, align 4
  br label %223

22:                                               ; preds = %3
  %23 = load i32, ptr %8, align 4, !tbaa !4
  switch i32 %23, label %220 [
    i32 7, label %24
    i32 8, label %24
    i32 4, label %45
    i32 5, label %53
    i32 6, label %150
    i32 10, label %178
    i32 9, label %203
  ]

24:                                               ; preds = %22, %22
  br label %25

25:                                               ; preds = %42, %24
  %26 = load ptr, ptr %5, align 8, !tbaa !47
  %27 = getelementptr inbounds nuw %struct._Node, ptr %26, i32 0, i32 0
  %28 = getelementptr inbounds nuw %struct.ConsAltNode, ptr %27, i32 0, i32 3
  %29 = load ptr, ptr %28, align 8, !tbaa !32
  %30 = load i32, ptr %6, align 4, !tbaa !4
  %31 = load ptr, ptr %7, align 8, !tbaa !104
  %32 = call i32 @check_node_in_look_behind(ptr noundef %29, i32 noundef %30, ptr noundef %31)
  store i32 %32, ptr %9, align 4, !tbaa !4
  br label %33

33:                                               ; preds = %25
  %34 = load i32, ptr %9, align 4, !tbaa !4
  %35 = icmp eq i32 %34, 0
  br i1 %35, label %36, label %42

36:                                               ; preds = %33
  %37 = load ptr, ptr %5, align 8, !tbaa !47
  %38 = getelementptr inbounds nuw %struct._Node, ptr %37, i32 0, i32 0
  %39 = getelementptr inbounds nuw %struct.ConsAltNode, ptr %38, i32 0, i32 4
  %40 = load ptr, ptr %39, align 8, !tbaa !32
  store ptr %40, ptr %5, align 8, !tbaa !47
  %41 = icmp ne ptr %40, null
  br label %42

42:                                               ; preds = %36, %33
  %43 = phi i1 [ false, %33 ], [ %41, %36 ]
  br i1 %43, label %25, label %44, !llvm.loop !258

44:                                               ; preds = %42
  br label %221

45:                                               ; preds = %22
  %46 = load ptr, ptr %5, align 8, !tbaa !47
  %47 = getelementptr inbounds nuw %struct._Node, ptr %46, i32 0, i32 0
  %48 = getelementptr inbounds nuw %struct.anon.36, ptr %47, i32 0, i32 3
  %49 = load ptr, ptr %48, align 8, !tbaa !32
  %50 = load i32, ptr %6, align 4, !tbaa !4
  %51 = load ptr, ptr %7, align 8, !tbaa !104
  %52 = call i32 @check_node_in_look_behind(ptr noundef %49, i32 noundef %50, ptr noundef %51)
  store i32 %52, ptr %9, align 4, !tbaa !4
  br label %221

53:                                               ; preds = %22
  call void @llvm.lifetime.start.p0(i64 8, ptr %11) #9
  %54 = load ptr, ptr %5, align 8, !tbaa !47
  %55 = getelementptr inbounds nuw %struct._Node, ptr %54, i32 0, i32 0
  store ptr %55, ptr %11, align 8, !tbaa !15
  %56 = load ptr, ptr %11, align 8, !tbaa !15
  %57 = getelementptr inbounds nuw %struct.BagNode, ptr %56, i32 0, i32 4
  %58 = load i32, ptr %57, align 8, !tbaa !156
  %59 = shl i32 1, %58
  %60 = load i32, ptr %6, align 4, !tbaa !4
  %61 = sext i32 %60 to i64
  %62 = getelementptr inbounds [2 x i32], ptr @check_node_in_look_behind.bag_mask, i64 0, i64 %61
  %63 = load i32, ptr %62, align 4, !tbaa !4
  %64 = and i32 %59, %63
  %65 = icmp eq i32 %64, 0
  br i1 %65, label %66, label %67

66:                                               ; preds = %53
  store i32 1, ptr %4, align 4
  store i32 1, ptr %10, align 4
  br label %147

67:                                               ; preds = %53
  %68 = load ptr, ptr %5, align 8, !tbaa !47
  %69 = getelementptr inbounds nuw %struct._Node, ptr %68, i32 0, i32 0
  %70 = getelementptr inbounds nuw %struct.anon.36, ptr %69, i32 0, i32 3
  %71 = load ptr, ptr %70, align 8, !tbaa !32
  %72 = load i32, ptr %6, align 4, !tbaa !4
  %73 = load ptr, ptr %7, align 8, !tbaa !104
  %74 = call i32 @check_node_in_look_behind(ptr noundef %71, i32 noundef %72, ptr noundef %73)
  store i32 %74, ptr %9, align 4, !tbaa !4
  %75 = load i32, ptr %9, align 4, !tbaa !4
  %76 = icmp ne i32 %75, 0
  br i1 %76, label %77, label %78

77:                                               ; preds = %67
  store i32 2, ptr %10, align 4
  br label %147

78:                                               ; preds = %67
  %79 = load ptr, ptr %11, align 8, !tbaa !15
  %80 = getelementptr inbounds nuw %struct.BagNode, ptr %79, i32 0, i32 4
  %81 = load i32, ptr %80, align 8, !tbaa !156
  %82 = icmp eq i32 %81, 0
  br i1 %82, label %83, label %107

83:                                               ; preds = %78
  %84 = load ptr, ptr %5, align 8, !tbaa !47
  %85 = getelementptr inbounds nuw %struct._Node, ptr %84, i32 0, i32 0
  %86 = getelementptr inbounds nuw %struct.anon.36, ptr %85, i32 0, i32 1
  %87 = load i32, ptr %86, align 4, !tbaa !32
  %88 = and i32 %87, 65536
  %89 = icmp ne i32 %88, 0
  br i1 %89, label %104, label %90

90:                                               ; preds = %83
  %91 = load ptr, ptr %5, align 8, !tbaa !47
  %92 = getelementptr inbounds nuw %struct._Node, ptr %91, i32 0, i32 0
  %93 = getelementptr inbounds nuw %struct.anon.36, ptr %92, i32 0, i32 1
  %94 = load i32, ptr %93, align 4, !tbaa !32
  %95 = and i32 %94, 128
  %96 = icmp ne i32 %95, 0
  br i1 %96, label %104, label %97

97:                                               ; preds = %90
  %98 = load ptr, ptr %5, align 8, !tbaa !47
  %99 = getelementptr inbounds nuw %struct._Node, ptr %98, i32 0, i32 0
  %100 = getelementptr inbounds nuw %struct.anon.36, ptr %99, i32 0, i32 1
  %101 = load i32, ptr %100, align 4, !tbaa !32
  %102 = and i32 %101, 67108864
  %103 = icmp ne i32 %102, 0
  br i1 %103, label %104, label %106

104:                                              ; preds = %97, %90, %83
  %105 = load ptr, ptr %7, align 8, !tbaa !104
  store i32 1, ptr %105, align 4, !tbaa !4
  br label %106

106:                                              ; preds = %104, %97
  br label %146

107:                                              ; preds = %78
  %108 = load ptr, ptr %11, align 8, !tbaa !15
  %109 = getelementptr inbounds nuw %struct.BagNode, ptr %108, i32 0, i32 4
  %110 = load i32, ptr %109, align 8, !tbaa !156
  %111 = icmp eq i32 %110, 3
  br i1 %111, label %112, label %145

112:                                              ; preds = %107
  %113 = load ptr, ptr %11, align 8, !tbaa !15
  %114 = getelementptr inbounds nuw %struct.BagNode, ptr %113, i32 0, i32 5
  %115 = getelementptr inbounds nuw %struct.anon.40, ptr %114, i32 0, i32 0
  %116 = load ptr, ptr %115, align 8, !tbaa !32
  %117 = icmp ne ptr %116, null
  br i1 %117, label %118, label %130

118:                                              ; preds = %112
  %119 = load ptr, ptr %11, align 8, !tbaa !15
  %120 = getelementptr inbounds nuw %struct.BagNode, ptr %119, i32 0, i32 5
  %121 = getelementptr inbounds nuw %struct.anon.40, ptr %120, i32 0, i32 0
  %122 = load ptr, ptr %121, align 8, !tbaa !32
  %123 = load i32, ptr %6, align 4, !tbaa !4
  %124 = load ptr, ptr %7, align 8, !tbaa !104
  %125 = call i32 @check_node_in_look_behind(ptr noundef %122, i32 noundef %123, ptr noundef %124)
  store i32 %125, ptr %9, align 4, !tbaa !4
  %126 = load i32, ptr %9, align 4, !tbaa !4
  %127 = icmp ne i32 %126, 0
  br i1 %127, label %128, label %129

128:                                              ; preds = %118
  store i32 2, ptr %10, align 4
  br label %147

129:                                              ; preds = %118
  br label %130

130:                                              ; preds = %129, %112
  %131 = load ptr, ptr %11, align 8, !tbaa !15
  %132 = getelementptr inbounds nuw %struct.BagNode, ptr %131, i32 0, i32 5
  %133 = getelementptr inbounds nuw %struct.anon.40, ptr %132, i32 0, i32 1
  %134 = load ptr, ptr %133, align 8, !tbaa !32
  %135 = icmp ne ptr %134, null
  br i1 %135, label %136, label %144

136:                                              ; preds = %130
  %137 = load ptr, ptr %11, align 8, !tbaa !15
  %138 = getelementptr inbounds nuw %struct.BagNode, ptr %137, i32 0, i32 5
  %139 = getelementptr inbounds nuw %struct.anon.40, ptr %138, i32 0, i32 1
  %140 = load ptr, ptr %139, align 8, !tbaa !32
  %141 = load i32, ptr %6, align 4, !tbaa !4
  %142 = load ptr, ptr %7, align 8, !tbaa !104
  %143 = call i32 @check_node_in_look_behind(ptr noundef %140, i32 noundef %141, ptr noundef %142)
  store i32 %143, ptr %9, align 4, !tbaa !4
  br label %144

144:                                              ; preds = %136, %130
  br label %145

145:                                              ; preds = %144, %107
  br label %146

146:                                              ; preds = %145, %106
  store i32 0, ptr %10, align 4
  br label %147

147:                                              ; preds = %146, %128, %77, %66
  call void @llvm.lifetime.end.p0(i64 8, ptr %11) #9
  %148 = load i32, ptr %10, align 4
  switch i32 %148, label %223 [
    i32 0, label %149
    i32 2, label %221
  ]

149:                                              ; preds = %147
  br label %221

150:                                              ; preds = %22
  %151 = load ptr, ptr %5, align 8, !tbaa !47
  %152 = getelementptr inbounds nuw %struct._Node, ptr %151, i32 0, i32 0
  %153 = getelementptr inbounds nuw %struct.AnchorNode, ptr %152, i32 0, i32 4
  %154 = load i32, ptr %153, align 8, !tbaa !32
  store i32 %154, ptr %8, align 4, !tbaa !4
  %155 = load i32, ptr %8, align 4, !tbaa !4
  %156 = load i32, ptr %6, align 4, !tbaa !4
  %157 = sext i32 %156 to i64
  %158 = getelementptr inbounds [2 x i32], ptr @check_node_in_look_behind.anchor_mask, i64 0, i64 %157
  %159 = load i32, ptr %158, align 4, !tbaa !4
  %160 = and i32 %155, %159
  %161 = icmp eq i32 %160, 0
  br i1 %161, label %162, label %163

162:                                              ; preds = %150
  store i32 1, ptr %4, align 4
  store i32 1, ptr %10, align 4
  br label %223

163:                                              ; preds = %150
  %164 = load ptr, ptr %5, align 8, !tbaa !47
  %165 = getelementptr inbounds nuw %struct._Node, ptr %164, i32 0, i32 0
  %166 = getelementptr inbounds nuw %struct.anon.36, ptr %165, i32 0, i32 3
  %167 = load ptr, ptr %166, align 8, !tbaa !32
  %168 = icmp ne ptr %167, null
  br i1 %168, label %169, label %177

169:                                              ; preds = %163
  %170 = load ptr, ptr %5, align 8, !tbaa !47
  %171 = getelementptr inbounds nuw %struct._Node, ptr %170, i32 0, i32 0
  %172 = getelementptr inbounds nuw %struct.anon.36, ptr %171, i32 0, i32 3
  %173 = load ptr, ptr %172, align 8, !tbaa !32
  %174 = load i32, ptr %6, align 4, !tbaa !4
  %175 = load ptr, ptr %7, align 8, !tbaa !104
  %176 = call i32 @check_node_in_look_behind(ptr noundef %173, i32 noundef %174, ptr noundef %175)
  store i32 %176, ptr %9, align 4, !tbaa !4
  br label %177

177:                                              ; preds = %169, %163
  br label %221

178:                                              ; preds = %22
  %179 = load ptr, ptr %5, align 8, !tbaa !47
  %180 = getelementptr inbounds nuw %struct._Node, ptr %179, i32 0, i32 0
  %181 = getelementptr inbounds nuw %struct.anon.36, ptr %180, i32 0, i32 1
  %182 = load i32, ptr %181, align 4, !tbaa !32
  %183 = and i32 %182, 16777216
  %184 = icmp ne i32 %183, 0
  %185 = zext i1 %184 to i32
  %186 = icmp ne i32 %185, 0
  br i1 %186, label %187, label %188

187:                                              ; preds = %178
  store i32 1, ptr %4, align 4
  store i32 1, ptr %10, align 4
  br label %223

188:                                              ; preds = %178
  call void @llvm.lifetime.start.p0(i64 8, ptr %12) #9
  %189 = load ptr, ptr %5, align 8, !tbaa !47
  %190 = getelementptr inbounds nuw %struct._Node, ptr %189, i32 0, i32 0
  store ptr %190, ptr %12, align 8, !tbaa !15
  %191 = load ptr, ptr %12, align 8, !tbaa !15
  %192 = getelementptr inbounds nuw %struct.GimmickNode, ptr %191, i32 0, i32 3
  %193 = load i32, ptr %192, align 8, !tbaa !159
  %194 = icmp eq i32 %193, 1
  br i1 %194, label %195, label %202

195:                                              ; preds = %188
  %196 = load ptr, ptr %12, align 8, !tbaa !15
  %197 = getelementptr inbounds nuw %struct.GimmickNode, ptr %196, i32 0, i32 4
  %198 = load i32, ptr %197, align 4, !tbaa !161
  %199 = icmp eq i32 %198, 0
  br i1 %199, label %200, label %202

200:                                              ; preds = %195
  %201 = load ptr, ptr %7, align 8, !tbaa !104
  store i32 1, ptr %201, align 4, !tbaa !4
  br label %202

202:                                              ; preds = %200, %195, %188
  call void @llvm.lifetime.end.p0(i64 8, ptr %12) #9
  br label %221

203:                                              ; preds = %22
  %204 = load ptr, ptr %5, align 8, !tbaa !47
  %205 = getelementptr inbounds nuw %struct._Node, ptr %204, i32 0, i32 0
  %206 = getelementptr inbounds nuw %struct.anon.36, ptr %205, i32 0, i32 1
  %207 = load i32, ptr %206, align 4, !tbaa !32
  %208 = and i32 %207, 64
  %209 = icmp ne i32 %208, 0
  br i1 %209, label %210, label %212

210:                                              ; preds = %203
  %211 = load ptr, ptr %7, align 8, !tbaa !104
  store i32 1, ptr %211, align 4, !tbaa !4
  br label %219

212:                                              ; preds = %203
  %213 = load ptr, ptr %5, align 8, !tbaa !47
  %214 = getelementptr inbounds nuw %struct._Node, ptr %213, i32 0, i32 0
  %215 = getelementptr inbounds nuw %struct.anon.36, ptr %214, i32 0, i32 3
  %216 = load ptr, ptr %215, align 8, !tbaa !32
  %217 = load i32, ptr %6, align 4, !tbaa !4
  %218 = call i32 @check_called_node_in_look_behind(ptr noundef %216, i32 noundef %217)
  store i32 %218, ptr %9, align 4, !tbaa !4
  br label %219

219:                                              ; preds = %212, %210
  br label %221

220:                                              ; preds = %22
  br label %221

221:                                              ; preds = %220, %219, %202, %177, %149, %147, %45, %44
  %222 = load i32, ptr %9, align 4, !tbaa !4
  store i32 %222, ptr %4, align 4
  store i32 1, ptr %10, align 4
  br label %223

223:                                              ; preds = %221, %187, %162, %147, %21
  call void @llvm.lifetime.end.p0(i64 4, ptr %9) #9
  call void @llvm.lifetime.end.p0(i64 4, ptr %8) #9
  %224 = load i32, ptr %4, align 4
  ret i32 %224
}